target datalayout = "e-m:e-p270:32:32-p271:32:32-p272:64:64-i64:64-i128:128-f80:128-n8:16:32:64-S128"
target triple = "x86_64-pc-linux-gnu"

; Function Attrs: nounwind uwtable
define internal i32 @arenas_decay_ms_ctl_impl(ptr noundef %0, ptr noundef %1, i64 noundef %2, ptr noundef %3, ptr noundef %4, ptr noundef %5, i64 noundef %6, i1 noundef zeroext %7) #0 {
  %9 = alloca i32, align 4
  %10 = alloca ptr, align 8
  %11 = alloca ptr, align 8
  %12 = alloca i64, align 8
  %13 = alloca ptr, align 8
  %14 = alloca ptr, align 8
  %15 = alloca ptr, align 8
  %16 = alloca i64, align 8
  %17 = alloca i8, align 1
  %18 = alloca i32, align 4
  %19 = alloca i64, align 8
  %20 = alloca i64, align 8
  %21 = alloca i32, align 4
  store ptr %0, ptr %10, align 8, !tbaa !3
  store ptr %1, ptr %11, align 8, !tbaa !11
  store i64 %2, ptr %12, align 8, !tbaa !13
  store ptr %3, ptr %13, align 8, !tbaa !10
  store ptr %4, ptr %14, align 8, !tbaa !11
  store ptr %5, ptr %15, align 8, !tbaa !10
  store i64 %6, ptr %16, align 8, !tbaa !13
  %22 = zext i1 %7 to i8
  store i8 %22, ptr %17, align 1, !tbaa !15
  call void @llvm.lifetime.start.p0(i64 4, ptr %18) #13
  %23 = load ptr, ptr %13, align 8, !tbaa !10
  %24 = icmp ne ptr %23, null
  br i1 %24, label %25, label %70

25:                                               ; preds = %8
  %26 = load ptr, ptr %14, align 8, !tbaa !11
  %27 = icmp ne ptr %26, null
  br i1 %27, label %28, label %70

28:                                               ; preds = %25
  call void @llvm.lifetime.start.p0(i64 8, ptr %19) #13
  %29 = load i8, ptr %17, align 1, !tbaa !15, !range !17, !noundef !18
  %30 = trunc i8 %29 to i1
  br i1 %30, label %31, label %33

31:                                               ; preds = %28
  %32 = call i64 @duckdb_je_arena_dirty_decay_ms_default_get()
  br label %35

33:                                               ; preds = %28
  %34 = call i64 @duckdb_je_arena_muzzy_decay_ms_default_get()
  br label %35

35:                                               ; preds = %33, %31
  %36 = phi i64 [ %32, %31 ], [ %34, %33 ]
  store i64 %36, ptr %19, align 8, !tbaa !13
  br label %37

37:                                               ; preds = %35
  %38 = load ptr, ptr %13, align 8, !tbaa !10
  %39 = icmp ne ptr %38, null
  br i1 %39, label %40, label %64

40:                                               ; preds = %37
  %41 = load ptr, ptr %14, align 8, !tbaa !11
  %42 = icmp ne ptr %41, null
  br i1 %42, label %43, label %64

43:                                               ; preds = %40
  %44 = load ptr, ptr %14, align 8, !tbaa !11
  %45 = load i64, ptr %44, align 8, !tbaa !13
  %46 = icmp ne i64 %45, 8
  br i1 %46, label %47, label %61

47:                                               ; preds = %43
  call void @llvm.lifetime.start.p0(i64 8, ptr %20) #13
  %48 = load ptr, ptr %14, align 8, !tbaa !11
  %49 = load i64, ptr %48, align 8, !tbaa !13
  %50 = icmp ule i64 8, %49
  br i1 %50, label %51, label %52

51:                                               ; preds = %47
  br label %55

52:                                               ; preds = %47
  %53 = load ptr, ptr %14, align 8, !tbaa !11
  %54 = load i64, ptr %53, align 8, !tbaa !13
  br label %55

55:                                               ; preds = %52, %51
  %56 = phi i64 [ 8, %51 ], [ %54, %52 ]
  store i64 %56, ptr %20, align 8, !tbaa !13
  %57 = load ptr, ptr %13, align 8, !tbaa !10
  %58 = load i64, ptr %20, align 8, !tbaa !13
  call void @llvm.memcpy.p0.p0.i64(ptr align 1 %57, ptr align 1 %19, i64 %58, i1 false)
  %59 = load i64, ptr %20, align 8, !tbaa !13
  %60 = load ptr, ptr %14, align 8, !tbaa !11
  store i64 %59, ptr %60, align 8, !tbaa !13
  store i32 22, ptr %18, align 4, !tbaa !19
  store i32 4, ptr %21, align 4
  call void @llvm.lifetime.end.p0(i64 8, ptr %20) #13
  br label %67

61:                                               ; preds = %43
  %62 = load i64, ptr %19, align 8, !tbaa !13
  %63 = load ptr, ptr %13, align 8, !tbaa !10
  store i64 %62, ptr %63, align 8, !tbaa !13
  br label %64

64:                                               ; preds = %61, %40, %37
  br label %65

65:                                               ; preds = %64
  br label %66

66:                                               ; preds = %65
  store i32 0, ptr %21, align 4
  br label %67

67:                                               ; preds = %66, %55
  call void @llvm.lifetime.end.p0(i64 8, ptr %19) #13
  %68 = load i32, ptr %21, align 4
  switch i32 %68, label %93 [
    i32 0, label %69
    i32 4, label %91
  ]

69:                                               ; preds = %67
  br label %70

70:                                               ; preds = %69, %25, %8
  %71 = load ptr, ptr %15, align 8, !tbaa !10
  %72 = icmp ne ptr %71, null
  br i1 %72, label %73, label %90

73:                                               ; preds = %70
  %74 = load i64, ptr %16, align 8, !tbaa !13
  %75 = icmp ne i64 %74, 8
  br i1 %75, label %76, label %77

76:                                               ; preds = %73
  store i32 22, ptr %18, align 4, !tbaa !19
  br label %91

77:                                               ; preds = %73
  %78 = load i8, ptr %17, align 1, !tbaa !15, !range !17, !noundef !18
  %79 = trunc i8 %78 to i1
  br i1 %79, label %80, label %84

80:                                               ; preds = %77
  %81 = load ptr, ptr %15, align 8, !tbaa !10
  %82 = load i64, ptr %81, align 8, !tbaa !13
  %83 = call zeroext i1 @duckdb_je_arena_dirty_decay_ms_default_set(i64 noundef %82)
  br i1 %83, label %88, label %89

84:                                               ; preds = %77
  %85 = load ptr, ptr %15, align 8, !tbaa !10
  %86 = load i64, ptr %85, align 8, !tbaa !13
  %87 = call zeroext i1 @duckdb_je_arena_muzzy_decay_ms_default_set(i64 noundef %86)
  br i1 %87, label %88, label %89

88:                                               ; preds = %84, %80
  store i32 14, ptr %18, align 4, !tbaa !19
  br label %91

89:                                               ; preds = %84, %80
  br label %90

90:                                               ; preds = %89, %70
  store i32 0, ptr %18, align 4, !tbaa !19
  br label %91

91:                                               ; preds = %90, %67, %88, %76
  %92 = load i32, ptr %18, align 4, !tbaa !19
  store i32 %92, ptr %9, align 4
  store i32 1, ptr %21, align 4
  br label %93

93:                                               ; preds = %91, %67
  call void @llvm.lifetime.end.p0(i64 4, ptr %18) #13
  %94 = load i32, ptr %9, align 4
  ret i32 %94
}

; Function Attrs: nounwind uwtable
define internal i32 @arenas_dirty_decay_ms_ctl(ptr noundef %0, ptr noundef %1, i64 noundef %2, ptr noundef %3, ptr noundef %4, ptr noundef %5, i64 noundef %6) #0 {
  %8 = alloca ptr, align 8
  %9 = alloca ptr, align 8
  %10 = alloca i64, align 8
  %11 = alloca ptr, align 8
  %12 = alloca ptr, align 8
  %13 = alloca ptr, align 8
  %14 = alloca i64, align 8
  store ptr %0, ptr %8, align 8, !tbaa !3
  store ptr %1, ptr %9, align 8, !tbaa !11
  store i64 %2, ptr %10, align 8, !tbaa !13
  store ptr %3, ptr %11, align 8, !tbaa !10
  store ptr %4, ptr %12, align 8, !tbaa !11
  store ptr %5, ptr %13, align 8, !tbaa !10
  store i64 %6, ptr %14, align 8, !tbaa !13
  %15 = load ptr, ptr %8, align 8, !tbaa !3
  %16 = load ptr, ptr %9, align 8, !tbaa !11
  %17 = load i64, ptr %10, align 8, !tbaa !13
  %18 = load ptr, ptr %11, align 8, !tbaa !10
  %19 = load ptr, ptr %12, align 8, !tbaa !11
  %20 = load ptr, ptr %13, align 8, !tbaa !10
  %21 = load i64, ptr %14, align 8, !tbaa !13
  %22 = call i32 @arenas_decay_ms_ctl_impl(ptr noundef %15, ptr noundef %16, i64 noundef %17, ptr noundef %18, ptr noundef %19, ptr noundef %20, i64 noundef %21, i1 noundef zeroext true)
  ret i32 %22
}